target datalayout = "e-m:e-p270:32:32-p271:32:32-p272:64:64-i64:64-i128:128-f80:128-n8:16:32:64-S128"
target triple = "x86_64-pc-linux-gnu"

%class.RenderHelper = type { i32, i32, i32, i32, [6 x i32], i32, ptr, ptr, ptr, ptr, float, float }

@_ZN11floatbufferD1Ev = unnamed_addr alias void (ptr), ptr @_ZN11floatbufferD2Ev

; Function Attrs: mustprogress nounwind uwtable
define void @_ZN12RenderHelperD2Ev(ptr noundef nonnull align 8 dereferenceable(88) %0) unnamed_addr #4 align 2 {
  %2 = alloca ptr, align 8
  store ptr %0, ptr %2, align 8
  %3 = load ptr, ptr %2, align 8
  %4 = getelementptr inbounds %class.RenderHelper, ptr %3, i32 0, i32 7
  %5 = load ptr, ptr %4, align 8
  %6 = icmp ne ptr %5, null
  br i1 %6, label %7, label %13

7:                                                ; preds = %1
  %8 = getelementptr inbounds %class.RenderHelper, ptr %3, i32 0, i32 7
  %9 = load ptr, ptr %8, align 8
  %10 = icmp eq ptr %9, null
  br i1 %10, label %12, label %11

11:                                               ; preds = %7
  call void @_ZdaPv(ptr noundef %9) #23
  br label %12

12:                                               ; preds = %11, %7
  br label %13

13:                                               ; preds = %12, %1
  %14 = getelementptr inbounds %class.RenderHelper, ptr %3, i32 0, i32 9
  %15 = load ptr, ptr %14, align 8
  %16 = icmp ne ptr %15, null
  br i1 %16, label %17, label %23

17:                                               ; preds = %13
  %18 = getelementptr inbounds %class.RenderHelper, ptr %3, i32 0, i32 9
  %19 = load ptr, ptr %18, align 8
  %20 = icmp eq ptr %19, null
  br i1 %20, label %22, label %21

21:                                               ; preds = %17
  call void @_ZN11floatbufferD1Ev(ptr noundef nonnull align 8 dereferenceable(32) %19) #3
  call void @_ZdlPv(ptr noundef %19) #23
  br label %22

22:                                               ; preds = %21, %17
  br label %23

23:                                               ; preds = %22, %13
  ret void
}