; Function Attrs: mustprogress nounwind uwtable
define void @_ZN12RenderHelperD2Ev(ptr nocapture noundef nonnull readonly align 8 dereferenceable(88) %0) unnamed_addr #4 align 2 {
  %2 = getelementptr inbounds i8, ptr %0, i64 56
  %3 = load ptr, ptr %2, align 8
  %.not = icmp eq ptr %3, null
  br i1 %.not, label %5, label %4

4:                                                ; preds = %1
  tail call void @_ZdaPv(ptr noundef nonnull %3) #30
  br label %5

5:                                                ; preds = %4, %1
  %6 = getelementptr inbounds i8, ptr %0, i64 72
  %7 = load ptr, ptr %6, align 8
  %.not2 = icmp eq ptr %7, null
  br i1 %.not2, label %9, label %8

8:                                                ; preds = %5
  tail call void @_ZN11floatbufferD1Ev(ptr noundef nonnull align 8 dereferenceable(32) %7) #31
  tail call void @_ZdlPv(ptr noundef nonnull %7) #30
  br label %9

9:                                                ; preds = %8, %5
  ret void
}